libde265.so.0 libde265-0 #MINVER#
 _Z19en265_print_loggingPK15encoder_contextPKcS3_@Base 1.0.2
 _Z3MSEPKhiS0_iii@Base 1.0.2
 _Z4PSNRd@Base 1.0.2
 _ZNSt13_Bvector_baseISaIbEE13_M_deallocateEv@Base 1.0.2
 _ZNSt16_Sp_counted_baseILN9__gnu_cxx12_Lock_policyE2EE10_M_destroyEv@Base 1.0.2
 _ZNSt16_Sp_counted_baseILN9__gnu_cxx12_Lock_policyE2EE10_M_releaseEv@Base 1.0.2
 _ZNSt6vectorINSt7__cxx1112basic_stringIcSt11char_traitsIcESaIcEEESaIS5_EE19_M_emplace_back_auxIIRKS5_EEEvDpOT_@Base 1.0.2
 _ZNSt6vectorINSt7__cxx1112basic_stringIcSt11char_traitsIcESaIcEEESaIS5_EE19_M_emplace_back_auxIIS5_EEEvDpOT_@Base 1.0.2
 _ZNSt6vectorINSt7__cxx1112basic_stringIcSt11char_traitsIcESaIcEEESaIS5_EE19_M_emplace_back_auxIJRKS5_EEEvDpOT_@Base 1.0.2
 _ZNSt6vectorINSt7__cxx1112basic_stringIcSt11char_traitsIcESaIcEEESaIS5_EE19_M_emplace_back_auxIJS5_EEEvDpOT_@Base 1.0.2
 _ZNSt6vectorINSt7__cxx1112basic_stringIcSt11char_traitsIcESaIcEEESaIS5_EED1Ev@Base 1.0.2
 _ZNSt6vectorINSt7__cxx1112basic_stringIcSt11char_traitsIcESaIcEEESaIS5_EED2Ev@Base 1.0.2
 _ZNSt6vectorIPhSaIS0_EE19_M_emplace_back_auxIIRKS0_EEEvDpOT_@Base 1.0.2
 _ZNSt6vectorIPhSaIS0_EE19_M_emplace_back_auxIJRKS0_EEEvDpOT_@Base 1.0.2
 _ZNSt6vectorIPvSaIS0_EE19_M_emplace_back_auxIIS0_EEEvDpOT_@Base 1.0.2
 _ZNSt6vectorIPvSaIS0_EE19_M_emplace_back_auxIJS0_EEEvDpOT_@Base 1.0.2
 _ZNSt6vectorIS_IbSaIbEESaIS1_EE17_M_default_appendEm@Base 1.0.2
 _ZNSt6vectorIS_IbSaIbEESaIS1_EEaSERKS3_@Base 1.0.2
 _ZNSt6vectorISt4pairI13IntraPredModefESaIS2_EE12emplace_backIIS2_EEEvDpOT_@Base 1.0.2
 _ZNSt6vectorISt4pairI13IntraPredModefESaIS2_EE12emplace_backIJS2_EEEvDpOT_@Base 1.0.2
 _ZNSt6vectorISt4pairI13IntraPredModefESaIS2_EE17_M_default_appendEm@Base 1.0.2
 _ZNSt6vectorISt4pairI13IntraPredModefESaIS2_EE19_M_emplace_back_auxIIS2_EEEvDpOT_@Base 1.0.2
 _ZNSt6vectorISt4pairI13IntraPredModefESaIS2_EE19_M_emplace_back_auxIJS2_EEEvDpOT_@Base 1.0.2
 _ZNSt6vectorISt4pairINSt7__cxx1112basic_stringIcSt11char_traitsIcESaIcEEE10MVTestModeESaIS8_EE19_M_emplace_back_auxIIS8_EEEvDpOT_@Base 1.0.2
 _ZNSt6vectorISt4pairINSt7__cxx1112basic_stringIcSt11char_traitsIcESaIcEEE10MVTestModeESaIS8_EE19_M_emplace_back_auxIJS8_EEEvDpOT_@Base 1.0.2
 _ZNSt6vectorISt4pairINSt7__cxx1112basic_stringIcSt11char_traitsIcESaIcEEE12MVSearchAlgoESaIS8_EE19_M_emplace_back_auxIIS8_EEEvDpOT_@Base 1.0.2
 _ZNSt6vectorISt4pairINSt7__cxx1112basic_stringIcSt11char_traitsIcESaIcEEE12MVSearchAlgoESaIS8_EE19_M_emplace_back_auxIJS8_EEEvDpOT_@Base 1.0.2
 _ZNSt6vectorISt4pairINSt7__cxx1112basic_stringIcSt11char_traitsIcESaIcEEE13SOP_StructureESaIS8_EE19_M_emplace_back_auxIIS8_EEEvDpOT_@Base 1.0.2
 _ZNSt6vectorISt4pairINSt7__cxx1112basic_stringIcSt11char_traitsIcESaIcEEE13SOP_StructureESaIS8_EE19_M_emplace_back_auxIJS8_EEEvDpOT_@Base 1.0.2
 _ZNSt6vectorISt4pairINSt7__cxx1112basic_stringIcSt11char_traitsIcESaIcEEE20TBBitrateEstimMethodESaIS8_EE19_M_emplace_back_auxIIS8_EEEvDpOT_@Base 1.0.2
 _ZNSt6vectorISt4pairINSt7__cxx1112basic_stringIcSt11char_traitsIcESaIcEEE20TBBitrateEstimMethodESaIS8_EE19_M_emplace_back_auxIJS8_EEEvDpOT_@Base 1.0.2
 _ZNSt6vectorISt4pairINSt7__cxx1112basic_stringIcSt11char_traitsIcESaIcEEE21ALGO_CB_IntraPartModeESaIS8_EE19_M_emplace_back_auxIIS8_EEEvDpOT_@Base 1.0.2
 _ZNSt6vectorISt4pairINSt7__cxx1112basic_stringIcSt11char_traitsIcESaIcEEE21ALGO_CB_IntraPartModeESaIS8_EE19_M_emplace_back_auxIJS8_EEEvDpOT_@Base 1.0.2
 _ZNSt6vectorISt4pairINSt7__cxx1112basic_stringIcSt11char_traitsIcESaIcEEE21ALGO_TB_IntraPredModeESaIS8_EE19_M_emplace_back_auxIIS8_EEEvDpOT_@Base 1.0.2
 _ZNSt6vectorISt4pairINSt7__cxx1112basic_stringIcSt11char_traitsIcESaIcEEE21ALGO_TB_IntraPredModeESaIS8_EE19_M_emplace_back_auxIJS8_EEEvDpOT_@Base 1.0.2
 _ZNSt6vectorISt4pairINSt7__cxx1112basic_stringIcSt11char_traitsIcESaIcEEE28ALGO_TB_IntraPredMode_SubsetESaIS8_EE19_M_emplace_back_auxIIS8_EEEvDpOT_@Base 1.0.2
 _ZNSt6vectorISt4pairINSt7__cxx1112basic_stringIcSt11char_traitsIcESaIcEEE28ALGO_TB_IntraPredMode_SubsetESaIS8_EE19_M_emplace_back_auxIJS8_EEEvDpOT_@Base 1.0.2
 _ZNSt6vectorISt4pairINSt7__cxx1112basic_stringIcSt11char_traitsIcESaIcEEE39ALGO_TB_Split_BruteForce_ZeroBlockPruneESaIS8_EE19_M_emplace_back_auxIIS8_EEEvDpOT_@Base 1.0.2
 _ZNSt6vectorISt4pairINSt7__cxx1112basic_stringIcSt11char_traitsIcESaIcEEE39ALGO_TB_Split_BruteForce_ZeroBlockPruneESaIS8_EE19_M_emplace_back_auxIJS8_EEEvDpOT_@Base 1.0.2
 _ZNSt6vectorISt4pairINSt7__cxx1112basic_stringIcSt11char_traitsIcESaIcEEE6MEModeESaIS8_EE19_M_emplace_back_auxIIS8_EEEvDpOT_@Base 1.0.2
 _ZNSt6vectorISt4pairINSt7__cxx1112basic_stringIcSt11char_traitsIcESaIcEEE6MEModeESaIS8_EE19_M_emplace_back_auxIJS8_EEEvDpOT_@Base 1.0.2
 _ZNSt6vectorISt4pairINSt7__cxx1112basic_stringIcSt11char_traitsIcESaIcEEE8PartModeESaIS8_EE19_M_emplace_back_auxIIS8_EEEvDpOT_@Base 1.0.2
 _ZNSt6vectorISt4pairINSt7__cxx1112basic_stringIcSt11char_traitsIcESaIcEEE8PartModeESaIS8_EE19_M_emplace_back_auxIJS8_EEEvDpOT_@Base 1.0.2
 _ZNSt6vectorIbSaIbEE14_M_fill_insertESt13_Bit_iteratormb@Base 1.0.2
 _ZNSt6vectorIcSaIcEE6resizeEm@Base 1.0.2
 _ZNSt6vectorIiSaIiEE12emplace_backIIiEEEvDpOT_@Base 1.0.2
 _ZNSt6vectorIiSaIiEE12emplace_backIJiEEEvDpOT_@Base 1.0.2
 _ZNSt6vectorIiSaIiEE17_M_default_appendEm@Base 1.0.2
 _ZNSt6vectorIiSaIiEE19_M_emplace_back_auxIIRKiEEEvDpOT_@Base 1.0.2
 _ZNSt6vectorIiSaIiEE19_M_emplace_back_auxIIiEEEvDpOT_@Base 1.0.2
 _ZNSt6vectorIiSaIiEE19_M_emplace_back_auxIJRKiEEEvDpOT_@Base 1.0.2
 _ZNSt6vectorIiSaIiEE19_M_emplace_back_auxIJiEEEvDpOT_@Base 1.0.2
 _ZNSt6vectorIiSaIiEEaSERKS1_@Base 1.0.2
 _ZNSt6vectorItSaItEE6resizeEm@Base 1.0.2
 _ZNSt6vectorItSaItEEaSERKS1_@Base 1.0.2
 _ZNSt7__cxx1115basic_stringbufIcSt11char_traitsIcESaIcEED0Ev@Base 1.0.2
 _ZNSt7__cxx1115basic_stringbufIcSt11char_traitsIcESaIcEED1Ev@Base 1.0.2
 _ZNSt7__cxx1115basic_stringbufIcSt11char_traitsIcESaIcEED2Ev@Base 1.0.2
 _ZStplIcSt11char_traitsIcESaIcEENSt7__cxx1112basic_stringIT_T0_T1_EERKS8_SA_@Base 1.0.2
 _ZTISt11_Mutex_baseILN9__gnu_cxx12_Lock_policyE2EE@Base 1.0.2
 _ZTISt16_Sp_counted_baseILN9__gnu_cxx12_Lock_policyE2EE@Base 1.0.2
 _ZTSSt11_Mutex_baseILN9__gnu_cxx12_Lock_policyE2EE@Base 1.0.2
 _ZTSSt16_Sp_counted_baseILN9__gnu_cxx12_Lock_policyE2EE@Base 1.0.2
 de265_alloc_image_plane@Base 1.0.2
 de265_change_framerate@Base 0.8
 de265_decode@Base 0.8
 de265_decode_data@Base 0.8
 de265_disable_logging@Base 0.8
 de265_flush_data@Base 0.8
 de265_free@Base 0.8
 de265_free_decoder@Base 0.8
 de265_free_image_plane@Base 1.0.2
 de265_get_bits_per_pixel@Base 1.0.2
 de265_get_chroma_format@Base 0.8
 de265_get_current_TID@Base 0.8
 de265_get_default_image_allocation_functions@Base 0.8
 de265_get_error_text@Base 0.8
 de265_get_highest_TID@Base 0.8
 de265_get_image_NAL_header@Base 0.8
 de265_get_image_PTS@Base 0.8
 de265_get_image_height@Base 0.8
 de265_get_image_plane@Base 0.8
 de265_get_image_plane_user_data@Base 0.8
 de265_get_image_user_data@Base 0.8
 de265_get_image_width@Base 0.8
 de265_get_next_picture@Base 0.8
 de265_get_number_of_NAL_units_pending@Base 0.8
 de265_get_number_of_input_bytes_pending@Base 0.8
 de265_get_parameter_bool@Base 0.8
 de265_get_version@Base 0.8
 de265_get_version_number@Base 0.8
 de265_get_version_number_maintenance@Base 1.0.2
 de265_get_version_number_major@Base 1.0.2
 de265_get_version_number_minor@Base 1.0.2
 de265_get_warning@Base 0.8
 de265_init@Base 0.8
 de265_isOK@Base 0.8
 de265_new_decoder@Base 0.8
 de265_peek_next_picture@Base 0.8
 de265_push_NAL@Base 0.8
 de265_push_data@Base 0.8
 de265_push_end_of_NAL@Base 0.8
 de265_push_end_of_frame@Base 0.9
 de265_release_next_picture@Base 0.8
 de265_reset@Base 0.8
 de265_set_framerate_ratio@Base 0.8
 de265_set_image_allocation_functions@Base 0.8
 de265_set_image_plane@Base 0.8
 de265_set_image_user_data@Base 0.9
 de265_set_limit_TID@Base 0.8
 de265_set_parameter_bool@Base 0.8
 de265_set_parameter_int@Base 0.8
 de265_set_verbosity@Base 0.8
 de265_start_worker_threads@Base 0.8
 draw_CB_grid@Base 0.8
 draw_Motion@Base 0.8
 draw_PB_grid@Base 0.8
 draw_PB_pred_modes@Base 0.8
 draw_QuantPY@Base 0.8
 draw_Slices@Base 0.8
 draw_TB_grid@Base 0.8
 draw_Tiles@Base 0.8
 draw_intra_pred_modes@Base 0.8
 en265_allocate_image@Base 1.0.2
 en265_block_on_input_queue_length@Base 1.0.2
 en265_current_input_queue_length@Base 1.0.2
 en265_encode@Base 1.0.2
 en265_free_encoder@Base 1.0.2
 en265_free_packet@Base 1.0.2
 en265_get_encoder_state@Base 1.0.2
 en265_get_image_spec@Base 1.0.2
 en265_get_packet@Base 1.0.2
 en265_get_parameter_type@Base 1.0.2
 en265_list_parameter_choices@Base 1.0.2
 en265_list_parameters@Base 1.0.2
 en265_new_encoder@Base 1.0.2
 en265_number_of_queued_packets@Base 1.0.2
 en265_parse_command_line_parameters@Base 1.0.2
 en265_push_eof@Base 1.0.2
 en265_push_image@Base 1.0.2
 en265_set_image_release_function@Base 1.0.2
 en265_set_parameter_bool@Base 1.0.2
 en265_set_parameter_choice@Base 1.0.2
 en265_set_parameter_int@Base 1.0.2
 en265_set_parameter_string@Base 1.0.2
 en265_show_parameters@Base 1.0.2
 en265_start_encoder@Base 1.0.2
 en265_trim_input_queue@Base 1.0.2
