libmediainfo.so.0 libmediainfo0v5 #MINVER#
 MediaInfoA_Close@Base 0.7.52
 MediaInfoA_Count_Get@Base 0.7.52
 MediaInfoA_Delete@Base 0.7.52
 MediaInfoA_Get@Base 0.7.52
 MediaInfoA_GetI@Base 0.7.52
 MediaInfoA_Inform@Base 0.7.52
 MediaInfoA_New@Base 0.7.52
 MediaInfoA_New_Quick@Base 0.7.52
 MediaInfoA_Open@Base 0.7.52
 MediaInfoA_Open_Buffer@Base 0.7.52
 MediaInfoA_Open_Buffer_Continue@Base 0.7.52
 MediaInfoA_Open_Buffer_Continue_GoTo_Get@Base 0.7.52
 MediaInfoA_Open_Buffer_Finalize@Base 0.7.52
 MediaInfoA_Open_Buffer_Init@Base 0.7.52
 MediaInfoA_Open_NextPacket@Base 0.7.52
 MediaInfoA_Option@Base 0.7.52
 MediaInfoA_Output_Buffer_Get@Base 0.7.52
 MediaInfoA_Output_Buffer_GetI@Base 0.7.52
 MediaInfoA_Save@Base 0.7.52
 MediaInfoA_Set@Base 0.7.52
 MediaInfoA_SetI@Base 0.7.52
 MediaInfoA_State_Get@Base 0.7.52
 MediaInfoListA_Close@Base 0.7.52
 MediaInfoListA_Count_Get@Base 0.7.52
 MediaInfoListA_Count_Get_Files@Base 0.7.52
 MediaInfoListA_Delete@Base 0.7.52
 MediaInfoListA_Get@Base 0.7.52
 MediaInfoListA_GetI@Base 0.7.52
 MediaInfoListA_Inform@Base 0.7.52
 MediaInfoListA_New@Base 0.7.52
 MediaInfoListA_New_Quick@Base 0.7.52
 MediaInfoListA_Open@Base 0.7.52
 MediaInfoListA_Open_Buffer@Base 0.7.52
 MediaInfoListA_Option@Base 0.7.52
 MediaInfoListA_Save@Base 0.7.52
 MediaInfoListA_Set@Base 0.7.52
 MediaInfoListA_SetI@Base 0.7.52
 MediaInfoListA_State_Get@Base 0.7.52
 MediaInfoList_Close@Base 0.7.52
 MediaInfoList_Count_Get@Base 0.7.52
 MediaInfoList_Count_Get_Files@Base 0.7.52
 MediaInfoList_Delete@Base 0.7.52
 MediaInfoList_Get@Base 0.7.52
 MediaInfoList_GetI@Base 0.7.52
 MediaInfoList_Inform@Base 0.7.52
 MediaInfoList_New@Base 0.7.52
 MediaInfoList_New_Quick@Base 0.7.52
 MediaInfoList_Open@Base 0.7.52
 MediaInfoList_Open_Buffer@Base 0.7.52
 MediaInfoList_Option@Base 0.7.52
 MediaInfoList_Save@Base 0.7.52
 MediaInfoList_Set@Base 0.7.52
 MediaInfoList_SetI@Base 0.7.52
 MediaInfoList_State_Get@Base 0.7.52
 MediaInfo_Close@Base 0.7.52
 MediaInfo_Count_Get@Base 0.7.52
 MediaInfo_Delete@Base 0.7.52
 MediaInfo_Get@Base 0.7.52
 MediaInfo_GetI@Base 0.7.52
 MediaInfo_Info_Version@Base 0.7.52
 MediaInfo_Inform@Base 0.7.52
 MediaInfo_New@Base 0.7.52
 MediaInfo_New_Quick@Base 0.7.52
 MediaInfo_Open@Base 0.7.52
 MediaInfo_Open_Buffer@Base 0.7.52
 MediaInfo_Open_Buffer_Continue@Base 0.7.52
 MediaInfo_Open_Buffer_Continue_GoTo_Get@Base 0.7.52
 MediaInfo_Open_Buffer_Finalize@Base 0.7.52
 MediaInfo_Open_Buffer_Init@Base 0.7.52
 MediaInfo_Open_NextPacket@Base 0.7.52
 MediaInfo_Option@Base 0.7.52
 MediaInfo_Output_Buffer_Get@Base 0.7.52
 MediaInfo_Output_Buffer_GetI@Base 0.7.52
 MediaInfo_Save@Base 0.7.52
 MediaInfo_Set@Base 0.7.52
 MediaInfo_SetI@Base 0.7.52
 MediaInfo_State_Get@Base 0.7.52
 _ZN12MediaInfoLib13MediaInfoList13Option_StaticERKNSt7__cxx1112basic_stringIwSt11char_traitsIwESaIwEEES8_@Base 0.7.56
 _ZN12MediaInfoLib13MediaInfoList16Open_Buffer_InitEyy@Base 0.7.52
 _ZN12MediaInfoLib13MediaInfoList20Open_Buffer_ContinueEmPKhm@Base 0.7.52
 _ZN12MediaInfoLib13MediaInfoList20Open_Buffer_FinalizeEm@Base 0.7.52
 _ZN12MediaInfoLib13MediaInfoList29Open_Buffer_Continue_GoTo_GetEm@Base 0.7.52
 _ZN12MediaInfoLib13MediaInfoList3GetB5cxx11EmNS_8stream_tEmmNS_6info_tE@Base 0.7.56
 _ZN12MediaInfoLib13MediaInfoList3GetEmNS_8stream_tEmRKNSt7__cxx1112basic_stringIwSt11char_traitsIwESaIwEEENS_6info_tESA_@Base 0.7.56
 _ZN12MediaInfoLib13MediaInfoList3SetERKNSt7__cxx1112basic_stringIwSt11char_traitsIwESaIwEEEmNS_8stream_tEmS8_S8_@Base 0.7.56
 _ZN12MediaInfoLib13MediaInfoList3SetERKNSt7__cxx1112basic_stringIwSt11char_traitsIwESaIwEEEmNS_8stream_tEmmS8_@Base 0.7.56
 _ZN12MediaInfoLib13MediaInfoList4OpenERKNSt7__cxx1112basic_stringIwSt11char_traitsIwESaIwEEENS_13fileoptions_tE@Base 0.7.56
 _ZN12MediaInfoLib13MediaInfoList4SaveEm@Base 0.7.52
 _ZN12MediaInfoLib13MediaInfoList5CloseEm@Base 0.7.52
 _ZN12MediaInfoLib13MediaInfoList6InformB5cxx11Emm@Base 0.7.56
 _ZN12MediaInfoLib13MediaInfoList6OptionERKNSt7__cxx1112basic_stringIwSt11char_traitsIwESaIwEEES8_@Base 0.7.56
 _ZN12MediaInfoLib13MediaInfoList9Count_GetEmNS_8stream_tEm@Base 0.7.52
 _ZN12MediaInfoLib13MediaInfoList9Count_GetEv@Base 0.7.52
 _ZN12MediaInfoLib13MediaInfoList9State_GetEv@Base 0.7.52
 _ZN12MediaInfoLib13MediaInfoListC1Em@Base 0.7.52
 _ZN12MediaInfoLib13MediaInfoListC2Em@Base 0.7.52
 _ZN12MediaInfoLib13MediaInfoListD1Ev@Base 0.7.52
 _ZN12MediaInfoLib13MediaInfoListD2Ev@Base 0.7.52
 _ZN12MediaInfoLib9MediaInfo13Option_StaticERKNSt7__cxx1112basic_stringIwSt11char_traitsIwESaIwEEES8_@Base 0.7.56
 _ZN12MediaInfoLib9MediaInfo15Open_NextPacketEv@Base 0.7.52
 _ZN12MediaInfoLib9MediaInfo16Open_Buffer_InitEyy@Base 0.7.52
 _ZN12MediaInfoLib9MediaInfo17Output_Buffer_GetERKNSt7__cxx1112basic_stringIwSt11char_traitsIwESaIwEEE@Base 0.7.56
 _ZN12MediaInfoLib9MediaInfo17Output_Buffer_GetEm@Base 0.7.52
 _ZN12MediaInfoLib9MediaInfo20Open_Buffer_ContinueEPKhm@Base 0.7.52
 _ZN12MediaInfoLib9MediaInfo20Open_Buffer_FinalizeEv@Base 0.7.52
 _ZN12MediaInfoLib9MediaInfo29Open_Buffer_Continue_GoTo_GetEv@Base 0.7.52
 _ZN12MediaInfoLib9MediaInfo3GetB5cxx11ENS_8stream_tEmmNS_6info_tE@Base 0.7.56
 _ZN12MediaInfoLib9MediaInfo3GetENS_8stream_tEmRKNSt7__cxx1112basic_stringIwSt11char_traitsIwESaIwEEENS_6info_tESA_@Base 0.7.56
 _ZN12MediaInfoLib9MediaInfo3SetERKNSt7__cxx1112basic_stringIwSt11char_traitsIwESaIwEEENS_8stream_tEmS8_S8_@Base 0.7.56
 _ZN12MediaInfoLib9MediaInfo3SetERKNSt7__cxx1112basic_stringIwSt11char_traitsIwESaIwEEENS_8stream_tEmmS8_@Base 0.7.56
 _ZN12MediaInfoLib9MediaInfo4OpenEPKhmS2_my@Base 0.7.52
 _ZN12MediaInfoLib9MediaInfo4OpenERKNSt7__cxx1112basic_stringIwSt11char_traitsIwESaIwEEE@Base 0.7.56
 _ZN12MediaInfoLib9MediaInfo4SaveEv@Base 0.7.52
 _ZN12MediaInfoLib9MediaInfo5CloseEv@Base 0.7.52
 _ZN12MediaInfoLib9MediaInfo6InformB5cxx11Em@Base 0.7.56
 _ZN12MediaInfoLib9MediaInfo6OptionERKNSt7__cxx1112basic_stringIwSt11char_traitsIwESaIwEEES8_@Base 0.7.56
 _ZN12MediaInfoLib9MediaInfo9Count_GetENS_8stream_tEm@Base 0.7.52
 _ZN12MediaInfoLib9MediaInfo9State_GetEv@Base 0.7.52
 _ZN12MediaInfoLib9MediaInfoC1Ev@Base 0.7.52
 _ZN12MediaInfoLib9MediaInfoC2Ev@Base 0.7.52
 _ZN12MediaInfoLib9MediaInfoD1Ev@Base 0.7.52
 _ZN12MediaInfoLib9MediaInfoD2Ev@Base 0.7.52
 _ZNSt13_Bvector_baseISaIbEE13_M_deallocateEv@Base 0.7.52
 _ZNSt3mapIyySt4lessIyESaISt4pairIKyyEEEixERS3_@Base 0.7.52
 _ZNSt5dequeINSt7__cxx1112basic_stringIwSt11char_traitsIwESaIwEEESaIS5_EE16_M_pop_front_auxEv@Base 0.7.52
 _ZNSt5dequeINSt7__cxx1112basic_stringIwSt11char_traitsIwESaIwEEESaIS5_EE16_M_push_back_auxIJRKS5_EEEvDpOT_@Base 0.7.52
 _ZNSt5dequeINSt7__cxx1112basic_stringIwSt11char_traitsIwESaIwEEESaIS5_EED1Ev@Base 0.7.52
 _ZNSt5dequeINSt7__cxx1112basic_stringIwSt11char_traitsIwESaIwEEESaIS5_EED2Ev@Base 0.7.52
 _ZNSt6vectorIN12MediaInfoLib9File_Dvdv6sectorESaIS2_EE17_M_default_appendEm@Base 0.7.52
 _ZNSt6vectorINSt7__cxx1112basic_stringIcSt11char_traitsIcESaIcEEESaIS5_EE12emplace_backIJS5_EEEvDpOT_@Base 0.7.52
 _ZNSt6vectorINSt7__cxx1112basic_stringIcSt11char_traitsIcESaIcEEESaIS5_EE17_M_realloc_insertIJRKS5_EEEvN9__gnu_cxx17__normal_iteratorIPS5_S7_EEDpOT_@Base 0.7.52
 _ZNSt6vectorINSt7__cxx1112basic_stringIcSt11char_traitsIcESaIcEEESaIS5_EE17_M_realloc_insertIJS5_EEEvN9__gnu_cxx17__normal_iteratorIPS5_S7_EEDpOT_@Base 0.7.52
 _ZNSt6vectorINSt7__cxx1112basic_stringIcSt11char_traitsIcESaIcEEESaIS5_EED1Ev@Base 0.7.52
 _ZNSt6vectorINSt7__cxx1112basic_stringIcSt11char_traitsIcESaIcEEESaIS5_EED2Ev@Base 0.7.52
 _ZNSt6vectorINSt7__cxx1112basic_stringIwSt11char_traitsIwESaIwEEESaIS5_EE17_M_default_appendEm@Base 0.7.52
 _ZNSt6vectorINSt7__cxx1112basic_stringIwSt11char_traitsIwESaIwEEESaIS5_EED1Ev@Base 0.7.52
 _ZNSt6vectorINSt7__cxx1112basic_stringIwSt11char_traitsIwESaIwEEESaIS5_EED2Ev@Base 0.7.52
 _ZNSt6vectorIS_IhSaIhEESaIS1_EE17_M_default_appendEm@Base 0.7.52
 _ZNSt6vectorIS_IhSaIhEESaIS1_EE8_M_eraseEN9__gnu_cxx17__normal_iteratorIPS1_S3_EE@Base 0.7.52
 _ZNSt6vectorIS_ImSaImEESaIS1_EE17_M_default_appendEm@Base 0.7.52
 _ZNSt6vectorIS_ImSaImEESaIS1_EED1Ev@Base 0.7.52
 _ZNSt6vectorIS_ImSaImEESaIS1_EED2Ev@Base 0.7.52
 _ZNSt6vectorISt4pairINSt7__cxx1112basic_stringIcSt11char_traitsIcESaIcEEES6_ESaIS7_EE12emplace_backIJS7_EEEvDpOT_@Base 0.7.52
 _ZNSt6vectorISt4pairINSt7__cxx1112basic_stringIcSt11char_traitsIcESaIcEEES6_ESaIS7_EE17_M_realloc_insertIJS7_EEEvN9__gnu_cxx17__normal_iteratorIPS7_S9_EEDpOT_@Base 0.7.52
 _ZNSt6vectorISt4pairINSt7__cxx1112basic_stringIcSt11char_traitsIcESaIcEEES6_ESaIS7_EED1Ev@Base 0.7.52
 _ZNSt6vectorISt4pairINSt7__cxx1112basic_stringIcSt11char_traitsIcESaIcEEES6_ESaIS7_EED2Ev@Base 0.7.52
 _ZNSt6vectorIbSaIbEE13_M_insert_auxESt13_Bit_iteratorb@Base 0.7.52
 _ZNSt6vectorIbSaIbEE14_M_fill_insertESt13_Bit_iteratormb@Base 0.7.52
 _ZNSt6vectorIbSaIbEE6resizeEmb@Base 0.7.52
 _ZNSt6vectorIfSaIfEE12emplace_backIJfEEEvDpOT_@Base 0.7.52
 _ZNSt6vectorIfSaIfEE17_M_realloc_insertIJfEEEvN9__gnu_cxx17__normal_iteratorIPfS1_EEDpOT_@Base 0.7.52
 _ZNSt6vectorIhSaIhEE14_M_fill_insertEN9__gnu_cxx17__normal_iteratorIPhS1_EEmRKh@Base 0.7.52
 _ZNSt6vectorIhSaIhEE17_M_realloc_insertIJRKhEEEvN9__gnu_cxx17__normal_iteratorIPhS1_EEDpOT_@Base 0.7.52
 _ZNSt6vectorIjSaIjEE12emplace_backIJjEEEvDpOT_@Base 0.7.52
 _ZNSt6vectorIjSaIjEE17_M_realloc_insertIJRKjEEEvN9__gnu_cxx17__normal_iteratorIPjS1_EEDpOT_@Base 0.7.52
 _ZNSt6vectorIjSaIjEE17_M_realloc_insertIJjEEEvN9__gnu_cxx17__normal_iteratorIPjS1_EEDpOT_@Base 0.7.52
 _ZNSt6vectorIjSaIjEE8_M_eraseEN9__gnu_cxx17__normal_iteratorIPjS1_EES5_@Base 0.7.52
 _ZNSt6vectorIjSaIjEEaSERKS1_@Base 0.7.52
 _ZNSt6vectorImSaImEE12emplace_backIJmEEEvDpOT_@Base 0.7.52
 _ZNSt6vectorImSaImEE17_M_default_appendEm@Base 0.7.52
 _ZNSt6vectorImSaImEE17_M_realloc_insertIJRKmEEEvN9__gnu_cxx17__normal_iteratorIPmS1_EEDpOT_@Base 0.7.52
 _ZNSt6vectorImSaImEE17_M_realloc_insertIJmEEEvN9__gnu_cxx17__normal_iteratorIPmS1_EEDpOT_@Base 0.7.52
 _ZNSt6vectorImSaImEEaSERKS1_@Base 0.7.52
 _ZNSt6vectorItSaItEE14_M_fill_insertEN9__gnu_cxx17__normal_iteratorIPtS1_EEmRKt@Base 0.7.52
 _ZNSt6vectorItSaItEE17_M_realloc_insertIJRKtEEEvN9__gnu_cxx17__normal_iteratorIPtS1_EEDpOT_@Base 0.7.52
 _ZNSt6vectorItSaItEE8_M_eraseEN9__gnu_cxx17__normal_iteratorIPtS1_EE@Base 0.7.52
 _ZNSt6vectorItSaItEE9push_backERKt@Base 0.7.52
 _ZNSt6vectorIxSaIxEE17_M_default_appendEm@Base 0.7.52
 _ZNSt6vectorIxSaIxEE17_M_realloc_insertIJxEEEvN9__gnu_cxx17__normal_iteratorIPxS1_EEDpOT_@Base 0.7.52
 _ZNSt6vectorIySaIyEE12emplace_backIJyEEEvDpOT_@Base 0.7.52
 _ZNSt6vectorIySaIyEE14_M_fill_insertEN9__gnu_cxx17__normal_iteratorIPyS1_EEmRKy@Base 0.7.52
 _ZNSt6vectorIySaIyEE15_M_range_insertIN9__gnu_cxx17__normal_iteratorIPyS1_EEEEvS6_T_S7_St20forward_iterator_tag@Base 0.7.52
 _ZNSt6vectorIySaIyEE17_M_default_appendEm@Base 0.7.52
 _ZNSt6vectorIySaIyEE17_M_realloc_insertIJRKyEEEvN9__gnu_cxx17__normal_iteratorIPyS1_EEDpOT_@Base 0.7.52
 _ZNSt6vectorIySaIyEE17_M_realloc_insertIJyEEEvN9__gnu_cxx17__normal_iteratorIPyS1_EEDpOT_@Base 0.7.52
 _ZNSt6vectorIySaIyEE8_M_eraseEN9__gnu_cxx17__normal_iteratorIPyS1_EES5_@Base 0.7.52
 _ZNSt6vectorIySaIyEEaSERKS1_@Base 0.7.52
 _ZNSt7__cxx1112basic_stringIwSt11char_traitsIwESaIwEE12_M_constructIPKwEEvT_S8_St20forward_iterator_tag@Base 0.7.52
 _ZNSt7__cxx1112basic_stringIwSt11char_traitsIwESaIwEE12_M_constructIPwEEvT_S7_St20forward_iterator_tag@Base 0.7.52
 _ZNSt8_Rb_treeINSt7__cxx1112basic_stringIcSt11char_traitsIcESaIcEEESt4pairIKS5_S5_ESt10_Select1stIS8_ESt4lessIS5_ESaIS8_EE24_M_get_insert_unique_posERS7_@Base 0.7.52
 _ZNSt8_Rb_treeINSt7__cxx1112basic_stringIcSt11char_traitsIcESaIcEEESt4pairIKS5_S5_ESt10_Select1stIS8_ESt4lessIS5_ESaIS8_EE29_M_get_insert_hint_unique_posESt23_Rb_tree_const_iteratorIS8_ERS7_@Base 0.7.52
 _ZNSt8_Rb_treeINSt7__cxx1112basic_stringIcSt11char_traitsIcESaIcEEESt4pairIKS5_S5_ESt10_Select1stIS8_ESt4lessIS5_ESaIS8_EE8_M_eraseEPSt13_Rb_tree_nodeIS8_E@Base 0.7.52
 _ZNSt8_Rb_treeINSt7__cxx1112basic_stringIcSt11char_traitsIcESaIcEEESt4pairIKS5_yESt10_Select1stIS8_ESt4lessIS5_ESaIS8_EE24_M_get_insert_unique_posERS7_@Base 0.7.52
 _ZNSt8_Rb_treeINSt7__cxx1112basic_stringIcSt11char_traitsIcESaIcEEESt4pairIKS5_yESt10_Select1stIS8_ESt4lessIS5_ESaIS8_EE29_M_get_insert_hint_unique_posESt23_Rb_tree_const_iteratorIS8_ERS7_@Base 0.7.52
 _ZNSt8_Rb_treeINSt7__cxx1112basic_stringIcSt11char_traitsIcESaIcEEESt4pairIKS5_yESt10_Select1stIS8_ESt4lessIS5_ESaIS8_EE8_M_eraseEPSt13_Rb_tree_nodeIS8_E@Base 0.7.52
 _ZNSt8_Rb_treeINSt7__cxx1112basic_stringIwSt11char_traitsIwESaIwEEESt4pairIKS5_S5_ESt10_Select1stIS8_ESt4lessIS5_ESaIS8_EE24_M_get_insert_unique_posERS7_@Base 0.7.52
 _ZNSt8_Rb_treeINSt7__cxx1112basic_stringIwSt11char_traitsIwESaIwEEESt4pairIKS5_S5_ESt10_Select1stIS8_ESt4lessIS5_ESaIS8_EE29_M_get_insert_hint_unique_posESt23_Rb_tree_const_iteratorIS8_ERS7_@Base 0.7.52
 _ZNSt8_Rb_treeINSt7__cxx1112basic_stringIwSt11char_traitsIwESaIwEEESt4pairIKS5_S5_ESt10_Select1stIS8_ESt4lessIS5_ESaIS8_EE8_M_eraseEPSt13_Rb_tree_nodeIS8_E@Base 0.7.52
 _ZNSt8_Rb_treeIhSt4pairIKhbESt10_Select1stIS2_ESt4lessIhESaIS2_EE24_M_get_insert_unique_posERS1_@Base 0.7.52
 _ZNSt8_Rb_treeIhSt4pairIKhbESt10_Select1stIS2_ESt4lessIhESaIS2_EE29_M_get_insert_hint_unique_posESt23_Rb_tree_const_iteratorIS2_ERS1_@Base 0.7.52
 _ZNSt8_Rb_treeIhSt4pairIKhbESt10_Select1stIS2_ESt4lessIhESaIS2_EE8_M_eraseEPSt13_Rb_tree_nodeIS2_E@Base 0.7.52
 _ZNSt8_Rb_treeIhSt4pairIKhmESt10_Select1stIS2_ESt4lessIhESaIS2_EE24_M_get_insert_unique_posERS1_@Base 0.7.52
 _ZNSt8_Rb_treeIhSt4pairIKhmESt10_Select1stIS2_ESt4lessIhESaIS2_EE29_M_get_insert_hint_unique_posESt23_Rb_tree_const_iteratorIS2_ERS1_@Base 0.7.52
 _ZNSt8_Rb_treeIhSt4pairIKhmESt10_Select1stIS2_ESt4lessIhESaIS2_EE8_M_eraseEPSt13_Rb_tree_nodeIS2_E@Base 0.7.52
 _ZNSt8_Rb_treeIhSt4pairIKhyESt10_Select1stIS2_ESt4lessIhESaIS2_EE24_M_get_insert_unique_posERS1_@Base 0.7.52
 _ZNSt8_Rb_treeIhSt4pairIKhyESt10_Select1stIS2_ESt4lessIhESaIS2_EE29_M_get_insert_hint_unique_posESt23_Rb_tree_const_iteratorIS2_ERS1_@Base 0.7.52
 _ZNSt8_Rb_treeIhSt4pairIKhyESt10_Select1stIS2_ESt4lessIhESaIS2_EE8_M_eraseEPSt13_Rb_tree_nodeIS2_E@Base 0.7.52
 _ZNSt8_Rb_treeIjSt4pairIKjjESt10_Select1stIS2_ESt4lessIjESaIS2_EE24_M_get_insert_unique_posERS1_@Base 0.7.52
 _ZNSt8_Rb_treeIjSt4pairIKjjESt10_Select1stIS2_ESt4lessIjESaIS2_EE29_M_get_insert_hint_unique_posESt23_Rb_tree_const_iteratorIS2_ERS1_@Base 0.7.52
 _ZNSt8_Rb_treeIjSt4pairIKjjESt10_Select1stIS2_ESt4lessIjESaIS2_EE8_M_eraseEPSt13_Rb_tree_nodeIS2_E@Base 0.7.52
 _ZNSt8_Rb_treeIjSt4pairIKjmESt10_Select1stIS2_ESt4lessIjESaIS2_EE14_M_insert_nodeEPSt18_Rb_tree_node_baseSA_PSt13_Rb_tree_nodeIS2_E@Base 0.7.52
 _ZNSt8_Rb_treeIjSt4pairIKjmESt10_Select1stIS2_ESt4lessIjESaIS2_EE24_M_get_insert_unique_posERS1_@Base 0.7.52
 _ZNSt8_Rb_treeIjSt4pairIKjmESt10_Select1stIS2_ESt4lessIjESaIS2_EE29_M_get_insert_hint_unique_posESt23_Rb_tree_const_iteratorIS2_ERS1_@Base 0.7.52
 _ZNSt8_Rb_treeIjSt4pairIKjmESt10_Select1stIS2_ESt4lessIjESaIS2_EE8_M_eraseEPSt13_Rb_tree_nodeIS2_E@Base 0.7.52
 _ZNSt8_Rb_treeIjSt4pairIKjyESt10_Select1stIS2_ESt4lessIjESaIS2_EE24_M_get_insert_unique_posERS1_@Base 0.7.52
 _ZNSt8_Rb_treeIjSt4pairIKjyESt10_Select1stIS2_ESt4lessIjESaIS2_EE29_M_get_insert_hint_unique_posESt23_Rb_tree_const_iteratorIS2_ERS1_@Base 0.7.52
 _ZNSt8_Rb_treeIjSt4pairIKjyESt10_Select1stIS2_ESt4lessIjESaIS2_EE8_M_eraseEPSt13_Rb_tree_nodeIS2_E@Base 0.7.52
 _ZNSt8_Rb_treeIjjSt9_IdentityIjESt4lessIjESaIjEE16_M_insert_uniqueIRKjEESt4pairISt17_Rb_tree_iteratorIjEbEOT_@Base 0.7.52
 _ZNSt8_Rb_treeIjjSt9_IdentityIjESt4lessIjESaIjEE8_M_eraseEPSt13_Rb_tree_nodeIjE@Base 0.7.52
 _ZNSt8_Rb_treeItSt4pairIKtN12MediaInfoLib8stream_tEESt10_Select1stIS4_ESt4lessItESaIS4_EE24_M_get_insert_unique_posERS1_@Base 0.7.52
 _ZNSt8_Rb_treeItSt4pairIKtN12MediaInfoLib8stream_tEESt10_Select1stIS4_ESt4lessItESaIS4_EE29_M_get_insert_hint_unique_posESt23_Rb_tree_const_iteratorIS4_ERS1_@Base 0.7.52
 _ZNSt8_Rb_treeItSt4pairIKtN12MediaInfoLib8stream_tEESt10_Select1stIS4_ESt4lessItESaIS4_EE8_M_eraseEPSt13_Rb_tree_nodeIS4_E@Base 0.7.52
 _ZNSt8_Rb_treeItSt4pairIKtbESt10_Select1stIS2_ESt4lessItESaIS2_EE24_M_get_insert_unique_posERS1_@Base 0.7.52
 _ZNSt8_Rb_treeItSt4pairIKtbESt10_Select1stIS2_ESt4lessItESaIS2_EE29_M_get_insert_hint_unique_posESt23_Rb_tree_const_iteratorIS2_ERS1_@Base 0.7.52
 _ZNSt8_Rb_treeItSt4pairIKtbESt10_Select1stIS2_ESt4lessItESaIS2_EE8_M_eraseEPSt13_Rb_tree_nodeIS2_E@Base 0.7.52
 _ZNSt8_Rb_treeItSt4pairIKtmESt10_Select1stIS2_ESt4lessItESaIS2_EE24_M_get_insert_unique_posERS1_@Base 0.7.52
 _ZNSt8_Rb_treeItSt4pairIKtmESt10_Select1stIS2_ESt4lessItESaIS2_EE29_M_get_insert_hint_unique_posESt23_Rb_tree_const_iteratorIS2_ERS1_@Base 0.7.52
 _ZNSt8_Rb_treeItSt4pairIKtmESt10_Select1stIS2_ESt4lessItESaIS2_EE8_M_eraseEPSt13_Rb_tree_nodeIS2_E@Base 0.7.52
 _ZNSt8_Rb_treeItSt4pairIKttESt10_Select1stIS2_ESt4lessItESaIS2_EE24_M_get_insert_unique_posERS1_@Base 0.7.52
 _ZNSt8_Rb_treeItSt4pairIKttESt10_Select1stIS2_ESt4lessItESaIS2_EE29_M_get_insert_hint_unique_posESt23_Rb_tree_const_iteratorIS2_ERS1_@Base 0.7.52
 _ZNSt8_Rb_treeItSt4pairIKttESt10_Select1stIS2_ESt4lessItESaIS2_EE8_M_eraseEPSt13_Rb_tree_nodeIS2_E@Base 0.7.52
 _ZNSt8_Rb_treeItSt4pairIKtyESt10_Select1stIS2_ESt4lessItESaIS2_EE24_M_get_insert_unique_posERS1_@Base 0.7.52
 _ZNSt8_Rb_treeItSt4pairIKtyESt10_Select1stIS2_ESt4lessItESaIS2_EE29_M_get_insert_hint_unique_posESt23_Rb_tree_const_iteratorIS2_ERS1_@Base 0.7.52
 _ZNSt8_Rb_treeItSt4pairIKtyESt10_Select1stIS2_ESt4lessItESaIS2_EE5eraseERS1_@Base 0.7.52
 _ZNSt8_Rb_treeItSt4pairIKtyESt10_Select1stIS2_ESt4lessItESaIS2_EE8_M_eraseEPSt13_Rb_tree_nodeIS2_E@Base 0.7.52
 _ZNSt8_Rb_treeIttSt9_IdentityItESt4lessItESaItEE16_M_insert_uniqueIRKtEESt4pairISt17_Rb_tree_iteratorItEbEOT_@Base 0.7.52
 _ZNSt8_Rb_treeIttSt9_IdentityItESt4lessItESaItEE5eraseERKt@Base 0.7.52
 _ZNSt8_Rb_treeIttSt9_IdentityItESt4lessItESaItEE8_M_eraseEPSt13_Rb_tree_nodeItE@Base 0.7.52
 _ZNSt8_Rb_treeIySt4pairIKybESt10_Select1stIS2_ESt4lessIyESaIS2_EE24_M_get_insert_unique_posERS1_@Base 0.7.52
 _ZNSt8_Rb_treeIySt4pairIKybESt10_Select1stIS2_ESt4lessIyESaIS2_EE29_M_get_insert_hint_unique_posESt23_Rb_tree_const_iteratorIS2_ERS1_@Base 0.7.52
 _ZNSt8_Rb_treeIySt4pairIKybESt10_Select1stIS2_ESt4lessIyESaIS2_EE8_M_eraseEPSt13_Rb_tree_nodeIS2_E@Base 0.7.52
 _ZNSt8_Rb_treeIySt4pairIKyyESt10_Select1stIS2_ESt4lessIyESaIS2_EE24_M_get_insert_unique_posERS1_@Base 0.7.52
 _ZNSt8_Rb_treeIySt4pairIKyyESt10_Select1stIS2_ESt4lessIyESaIS2_EE29_M_get_insert_hint_unique_posESt23_Rb_tree_const_iteratorIS2_ERS1_@Base 0.7.52
 _ZNSt8_Rb_treeIySt4pairIKyyESt10_Select1stIS2_ESt4lessIyESaIS2_EE8_M_eraseEPSt13_Rb_tree_nodeIS2_E@Base 0.7.52
 _ZNSt8_Rb_treeIyySt9_IdentityIyESt4lessIyESaIyEE16_M_insert_uniqueIRKyEESt4pairISt17_Rb_tree_iteratorIyEbEOT_@Base 0.7.52
 _ZNSt8_Rb_treeIyySt9_IdentityIyESt4lessIyESaIyEE16_M_insert_uniqueIyEESt4pairISt17_Rb_tree_iteratorIyEbEOT_@Base 0.7.52
 _ZNSt8_Rb_treeIyySt9_IdentityIyESt4lessIyESaIyEE8_M_eraseEPSt13_Rb_tree_nodeIyE@Base 0.7.52
 _ZSt4findIN9__gnu_cxx17__normal_iteratorIPhSt6vectorIhSaIhEEEEiET_S7_S7_RKT0_@Base 0.7.52
 _ZSteqIwEN9__gnu_cxx11__enable_ifIXsrSt9__is_charIT_E7__valueEbE6__typeERKNSt7__cxx1112basic_stringIS3_St11char_traitsIS3_ESaIS3_EEESE_@Base 0.7.52
 _ZStplIcSt11char_traitsIcESaIcEENSt7__cxx1112basic_stringIT_T0_T1_EEOS8_PKS5_@Base 0.7.52
 _ZStplIcSt11char_traitsIcESaIcEENSt7__cxx1112basic_stringIT_T0_T1_EEOS8_S9_@Base 0.7.52
 _ZStplIcSt11char_traitsIcESaIcEENSt7__cxx1112basic_stringIT_T0_T1_EEPKS5_OS8_@Base 0.7.52
 _ZStplIcSt11char_traitsIcESaIcEENSt7__cxx1112basic_stringIT_T0_T1_EEPKS5_RKS8_@Base 0.7.52
 _ZStplIcSt11char_traitsIcESaIcEENSt7__cxx1112basic_stringIT_T0_T1_EERKS8_PKS5_@Base 0.7.52
 _ZStplIwSt11char_traitsIwESaIwEENSt7__cxx1112basic_stringIT_T0_T1_EEOS8_S5_@Base 0.7.52
 _ZStplIwSt11char_traitsIwESaIwEENSt7__cxx1112basic_stringIT_T0_T1_EEOS8_S9_@Base 0.7.52
 _ZStplIwSt11char_traitsIwESaIwEENSt7__cxx1112basic_stringIT_T0_T1_EEPKS5_RKS8_@Base 0.7.52
 _ZStplIwSt11char_traitsIwESaIwEENSt7__cxx1112basic_stringIT_T0_T1_EERKS8_PKS5_@Base 0.7.52
 _ZStplIwSt11char_traitsIwESaIwEENSt7__cxx1112basic_stringIT_T0_T1_EERKS8_S5_@Base 0.7.52
 _ZStplIwSt11char_traitsIwESaIwEENSt7__cxx1112basic_stringIT_T0_T1_EERKS8_SA_@Base 0.7.52
 _ZStplIwSt11char_traitsIwESaIwEENSt7__cxx1112basic_stringIT_T0_T1_EES5_RKS8_@Base 0.7.52
