libmodplug.so.1 libmodplug1 #MINVER#
 ModPlug_GetCurrentOrder@Base 1:0.8.8.5
 ModPlug_GetCurrentPattern@Base 1:0.8.8.5
 ModPlug_GetCurrentRow@Base 1:0.8.8.5
 ModPlug_GetCurrentSpeed@Base 1:0.8.8.5
 ModPlug_GetCurrentTempo@Base 1:0.8.8.5
 ModPlug_GetLength@Base 1:0.8.8.5
 ModPlug_GetMasterVolume@Base 1:0.8.8.5
 ModPlug_GetMessage@Base 1:0.8.8.5
 ModPlug_GetModuleType@Base 1:0.8.8.5
 ModPlug_GetName@Base 1:0.8.8.5
 ModPlug_GetPattern@Base 1:0.8.8.5
 ModPlug_GetPlayingChannels@Base 1:0.8.8.5
 ModPlug_GetSettings@Base 1:0.8.8.5
 ModPlug_InitMixerCallback@Base 1:0.8.8.5
 ModPlug_InstrumentName@Base 1:0.8.8.5
 ModPlug_Load@Base 1:0.8.8.5
 ModPlug_NumChannels@Base 1:0.8.8.5
 ModPlug_NumInstruments@Base 1:0.8.8.5
 ModPlug_NumPatterns@Base 1:0.8.8.5
 ModPlug_NumSamples@Base 1:0.8.8.5
 ModPlug_Read@Base 1:0.8.8.5
 ModPlug_SampleName@Base 1:0.8.8.5
 ModPlug_Seek@Base 1:0.8.8.5
 ModPlug_SeekOrder@Base 1:0.8.8.5
 ModPlug_SetMasterVolume@Base 1:0.8.8.5
 ModPlug_SetSettings@Base 1:0.8.8.5
 ModPlug_Unload@Base 1:0.8.8.5
 ModPlug_UnloadMixerCallback@Base 1:0.8.8.5
 _ZN10CSoundFile10FreeSampleEPv@Base 1:0.8.8.5
 _ZN10CSoundFile10InitPlayerEb@Base 1:0.8.8.5
 _ZN10CSoundFile10NoteChangeEjibb@Base 1:0.8.8.5
 _ZN10CSoundFile10PackSampleERii@Base 1:0.8.8.5
 _ZN10CSoundFile10ProcessRowEv@Base 1:0.8.8.5
 _ZN10CSoundFile10ReadSampleEP14_MODINSTRUMENTjPKcj@Base 1:0.8.8.5
 _ZN10CSoundFile10RetrigNoteEjj@Base 1:0.8.8.5
 _ZN10CSoundFile10gdwSysInfoE@Base 1:0.8.8.5
 _ZN10CSoundFile10gnCPUUsageE@Base 1:0.8.8.5
 _ZN10CSoundFile10gnChannelsE@Base 1:0.8.8.5
 _ZN10CSoundFile11DoFreqSlideEP11_MODCHANNELi@Base 1:0.8.8.5
 _ZN10CSoundFile11FineVibratoEP11_MODCHANNELj@Base 1:0.8.8.5
 _ZN10CSoundFile11FreePatternEPv@Base 1:0.8.8.5
 _ZN10CSoundFile11LoopPatternEii@Base 1:0.8.8.5
 _ZN10CSoundFile11PatternLoopEP11_MODCHANNELj@Base 1:0.8.8.5
 _ZN10CSoundFile11VolumeSlideEP11_MODCHANNELj@Base 1:0.8.8.5
 _ZN10CSoundFile12FineVolumeUpEP11_MODCHANNELj@Base 1:0.8.8.5
 _ZN10CSoundFile12ITInstrToMPTEPKvP17_INSTRUMENTHEADERj@Base 1:0.8.8.5
 _ZN10CSoundFile12PanningSlideEP11_MODCHANNELj@Base 1:0.8.8.5
 _ZN10CSoundFile12PortamentoUpEP11_MODCHANNELj@Base 1:0.8.8.5
 _ZN10CSoundFile12ResetMidiCfgEv@Base 1:0.8.8.5
 _ZN10CSoundFile12SetMixConfigEjj@Base 1:0.8.8.5
 _ZN10CSoundFile12gpSndMixHookE@Base 1:0.8.8.5
 _ZN10CSoundFile13CanPackSampleEPcjjPh@Base 1:0.8.8.5
 _ZN10CSoundFile13CheckCPUUsageEj@Base 1:0.8.8.5
 _ZN10CSoundFile13DestroySampleEj@Base 1:0.8.8.5
 _ZN10CSoundFile13InitializeDSPEb@Base 1:0.8.8.5
 _ZN10CSoundFile13ResetChannelsEv@Base 1:0.8.8.5
 _ZN10CSoundFile13SetCurrentPosEj@Base 1:0.8.8.5
 _ZN10CSoundFile13SetWaveConfigEjjjb@Base 1:0.8.8.5
 _ZN10CSoundFile13gdwMixingFreqE@Base 1:0.8.8.5
 _ZN10CSoundFile13gdwSoundSetupE@Base 1:0.8.8.5
 _ZN10CSoundFile13m_nXBassDepthE@Base 1:0.8.8.5
 _ZN10CSoundFile13m_nXBassRangeE@Base 1:0.8.8.5
 _ZN10CSoundFile14AllocateSampleEj@Base 1:0.8.8.5
 _ZN10CSoundFile14FineVolumeDownEP11_MODCHANNELj@Base 1:0.8.8.5
 _ZN10CSoundFile14GlobalFadeSongEj@Base 1:0.8.8.5
 _ZN10CSoundFile14GlobalVolSlideEj@Base 1:0.8.8.5
 _ZN10CSoundFile14LoadMixPluginsEPKvj@Base 1:0.8.8.5
 _ZN10CSoundFile14PortamentoDownEP11_MODCHANNELj@Base 1:0.8.8.5
 _ZN10CSoundFile14ProcessEffectsEv@Base 1:0.8.8.5
 _ZN10CSoundFile14ProcessMonoDSPEi@Base 1:0.8.8.5
 _ZN10CSoundFile14SaveMixPluginsEP8_IO_FILEb@Base 1:0.8.8.5
 _ZN10CSoundFile14SetPatternNameEjPKc@Base 1:0.8.8.5
 _ZN10CSoundFile14TonePortamentoEP11_MODCHANNELj@Base 1:0.8.8.5
 _ZN10CSoundFile14m_nReverbDelayE@Base 1:0.8.8.5
 _ZN10CSoundFile14m_nReverbDepthE@Base 1:0.8.8.5
 _ZN10CSoundFile15AllocatePatternEjj@Base 1:0.8.8.5
 _ZN10CSoundFile15ChannelVolSlideEP11_MODCHANNELj@Base 1:0.8.8.5
 _ZN10CSoundFile15CreateStereoMixEi@Base 1:0.8.8.5
 _ZN10CSoundFile15GetSongCommentsEPcjj@Base 1:0.8.8.5
 _ZN10CSoundFile15SetCurrentOrderEj@Base 1:0.8.8.5
 _ZN10CSoundFile15SetMasterVolumeEjb@Base 1:0.8.8.5
 _ZN10CSoundFile15SetWaveConfigExEbbbbbbb@Base 1:0.8.8.5
 _ZN10CSoundFile15gnBitsPerSampleE@Base 1:0.8.8.5
 _ZN10CSoundFile15m_nStreamVolumeE@Base 1:0.8.8.5
 _ZN10CSoundFile16AdjustSampleLoopEP14_MODINSTRUMENT@Base 1:0.8.8.5
 _ZN10CSoundFile16FinePortamentoUpEP11_MODCHANNELj@Base 1:0.8.8.5
 _ZN10CSoundFile16InstrumentChangeEP11_MODCHANNELjbbb@Base 1:0.8.8.5
 _ZN10CSoundFile16ProcessMidiMacroEjPKcj@Base 1:0.8.8.5
 _ZN10CSoundFile16ProcessStereoDSPEi@Base 1:0.8.8.5
 _ZN10CSoundFile16m_nProLogicDelayE@Base 1:0.8.8.5
 _ZN10CSoundFile16m_nProLogicDepthE@Base 1:0.8.8.5
 _ZN10CSoundFile17SetResamplingModeEj@Base 1:0.8.8.5
 _ZN10CSoundFile17m_nMaxMixChannelsE@Base 1:0.8.8.5
 _ZN10CSoundFile18FinePortamentoDownEP11_MODCHANNELj@Base 1:0.8.8.5
 _ZN10CSoundFile18GetRawSongCommentsEPcjj@Base 1:0.8.8.5
 _ZN10CSoundFile18SetXBassParametersEjj@Base 1:0.8.8.5
 _ZN10CSoundFile19DetectUnusedSamplesEPb@Base 1:0.8.8.5
 _ZN10CSoundFile19ExtendedMODCommandsEjj@Base 1:0.8.8.5
 _ZN10CSoundFile19ExtendedS3MCommandsEjj@Base 1:0.8.8.5
 _ZN10CSoundFile19SetReverbParametersEjj@Base 1:0.8.8.5
 _ZN10CSoundFile19gnVolumeRampSamplesE@Base 1:0.8.8.5
 _ZN10CSoundFile19m_nStereoSeparationE@Base 1:0.8.8.5
 _ZN10CSoundFile20FrequencyToTransposeEP14_MODINSTRUMENT@Base 1:0.8.8.5
 _ZN10CSoundFile20FrequencyToTransposeEj@Base 1:0.8.8.5
 _ZN10CSoundFile20TransposeToFrequencyEii@Base 1:0.8.8.5
 _ZN10CSoundFile21ExtendedChannelEffectEP11_MODCHANNELj@Base 1:0.8.8.5
 _ZN10CSoundFile21ExtraFinePortamentoUpEP11_MODCHANNELj@Base 1:0.8.8.5
 _ZN10CSoundFile21RemoveSelectedSamplesEPb@Base 1:0.8.8.5
 _ZN10CSoundFile21SetSurroundParametersEjj@Base 1:0.8.8.5
 _ZN10CSoundFile21gpMixPluginCreateProcE@Base 1:0.8.8.5
 _ZN10CSoundFile23ExtraFinePortamentoDownEP11_MODCHANNELj@Base 1:0.8.8.5
 _ZN10CSoundFile4ReadEPvj@Base 1:0.8.8.5
 _ZN10CSoundFile5gnAGCE@Base 1:0.8.8.5
 _ZN10CSoundFile6CreateEPKhj@Base 1:0.8.8.5
 _ZN10CSoundFile6KeyOffEj@Base 1:0.8.8.5
 _ZN10CSoundFile6ReadITEPKhj@Base 1:0.8.8.5
 _ZN10CSoundFile6ReadXMEPKhj@Base 1:0.8.8.5
 _ZN10CSoundFile6SetAGCEb@Base 1:0.8.8.5
 _ZN10CSoundFile7DestroyEv@Base 1:0.8.8.5
 _ZN10CSoundFile7NoteCutEjj@Base 1:0.8.8.5
 _ZN10CSoundFile7Read669EPKhj@Base 1:0.8.8.5
 _ZN10CSoundFile7ReadABCEPKhj@Base 1:0.8.8.5
 _ZN10CSoundFile7ReadAMFEPKhj@Base 1:0.8.8.5
 _ZN10CSoundFile7ReadAMSEPKhj@Base 1:0.8.8.5
 _ZN10CSoundFile7ReadDBMEPKhj@Base 1:0.8.8.5
 _ZN10CSoundFile7ReadDMFEPKhj@Base 1:0.8.8.5
 _ZN10CSoundFile7ReadDSMEPKhj@Base 1:0.8.8.5
 _ZN10CSoundFile7ReadFAREPKhj@Base 1:0.8.8.5
 _ZN10CSoundFile7ReadMDLEPKhj@Base 1:0.8.8.5
 _ZN10CSoundFile7ReadMIDEPKhj@Base 1:0.8.8.5
 _ZN10CSoundFile7ReadMT2EPKhj@Base 1:0.8.8.5
 _ZN10CSoundFile7ReadMTMEPKhj@Base 1:0.8.8.5
 _ZN10CSoundFile7ReadMedEPKhj@Base 1:0.8.8.5
 _ZN10CSoundFile7ReadModEPKhj@Base 1:0.8.8.5
 _ZN10CSoundFile7ReadOKTEPKhj@Base 1:0.8.8.5
 _ZN10CSoundFile7ReadPATEPKhj@Base 1:0.8.8.5
 _ZN10CSoundFile7ReadPSMEPKhj@Base 1:0.8.8.5
 _ZN10CSoundFile7ReadPTMEPKhj@Base 1:0.8.8.5
 _ZN10CSoundFile7ReadS3MEPKhj@Base 1:0.8.8.5
 _ZN10CSoundFile7ReadSTMEPKhj@Base 1:0.8.8.5
 _ZN10CSoundFile7ReadUMXEPKhj@Base 1:0.8.8.5
 _ZN10CSoundFile7ReadUltEPKhj@Base 1:0.8.8.5
 _ZN10CSoundFile7ReadWavEPKhj@Base 1:0.8.8.5
 _ZN10CSoundFile7TestABCEPKhj@Base 1:0.8.8.5
 _ZN10CSoundFile7TestMIDEPKhj@Base 1:0.8.8.5
 _ZN10CSoundFile7TestPATEPKhj@Base 1:0.8.8.5
 _ZN10CSoundFile7TremoloEP11_MODCHANNELj@Base 1:0.8.8.5
 _ZN10CSoundFile7VibratoEP11_MODCHANNELj@Base 1:0.8.8.5
 _ZN10CSoundFile8CheckNNAEjjib@Base 1:0.8.8.5
 _ZN10CSoundFile8FadeSongEj@Base 1:0.8.8.5
 _ZN10CSoundFile8ReadAMS2EPKhj@Base 1:0.8.8.5
 _ZN10CSoundFile8ReadNoteEv@Base 1:0.8.8.5
 _ZN10CSoundFile8SetSpeedEj@Base 1:0.8.8.5
 _ZN10CSoundFile8SetTempoEj@Base 1:0.8.8.5
 _ZN10CSoundFile9GetLengthEbb@Base 1:0.8.8.5
 _ZN10CSoundFile9PanbrelloEP11_MODCHANNELj@Base 1:0.8.8.5
 _ZN10CSoundFile9gnVUMeterE@Base 1:0.8.8.5
 _ZN10CSoundFileC1Ev@Base 1:0.8.8.5
 _ZN10CSoundFileC2Ev@Base 1:0.8.8.5
 _ZN10CSoundFileD1Ev@Base 1:0.8.8.5
 _ZN10CSoundFileD2Ev@Base 1:0.8.8.5
 _ZNK10CSoundFile10S3MConvertEP11_MODCOMMANDb@Base 1:0.8.8.5
 _ZNK10CSoundFile13GetCurrentPosEv@Base 1:0.8.8.5
 _ZNK10CSoundFile13GetNNAChannelEj@Base 1:0.8.8.5
 _ZNK10CSoundFile13GetSampleNameEjPc@Base 1:0.8.8.5
 _ZNK10CSoundFile14GetMaxPositionEv@Base 1:0.8.8.5
 _ZNK10CSoundFile14GetNumChannelsEv@Base 1:0.8.8.5
 _ZNK10CSoundFile14GetNumPatternsEv@Base 1:0.8.8.5
 _ZNK10CSoundFile14GetPatternNameEjPcj@Base 1:0.8.8.5
 _ZNK10CSoundFile14GetSaveFormatsEv@Base 1:0.8.8.5
 _ZNK10CSoundFile14IsSongFinishedEjj@Base 1:0.8.8.5
 _ZNK10CSoundFile14ModSaveCommandEPK11_MODCOMMANDb@Base 1:0.8.8.5
 _ZNK10CSoundFile14S3MSaveConvertEPjS0_b@Base 1:0.8.8.5
 _ZNK10CSoundFile17ConvertModCommandEP11_MODCOMMAND@Base 1:0.8.8.5
 _ZNK10CSoundFile17CutOffToFrequencyEji@Base 1:0.8.8.5
 _ZNK10CSoundFile17GetBestSaveFormatEv@Base 1:0.8.8.5
 _ZNK10CSoundFile17GetFreqFromPeriodEjji@Base 1:0.8.8.5
 _ZNK10CSoundFile17GetInstrumentNameEjPc@Base 1:0.8.8.5
 _ZNK10CSoundFile17GetNoteFromPeriodEj@Base 1:0.8.8.5
 _ZNK10CSoundFile17GetNumInstrumentsEv@Base 1:0.8.8.5
 _ZNK10CSoundFile17GetPeriodFromNoteEjij@Base 1:0.8.8.5
 _ZNK10CSoundFile18SetupChannelFilterEP11_MODCHANNELbi@Base 1:0.8.8.5
 _ZNK10CSoundFile19IsValidBackwardJumpEjjjj@Base 1:0.8.8.5
