libofa.so.0 libofa0 #MINVER#
 _Z10core_printR9Signal_opPh@Base 0.9.3
 _Z11pitch_printR9Signal_opPh@Base 0.9.3
 _Z12base64encodePKci@Base 0.9.3
 _Z13preprocessingPslibR9Signal_op@Base 0.9.3
 _ZN12TrackData_op11getDurationEv@Base 0.9.3
 _ZN12TrackData_op6linkToEPS_@Base 0.9.3
 _ZN12TrackData_op7getHeadEv@Base 0.9.3
 _ZN12TrackData_op7getTailEv@Base 0.9.3
 _ZN12TrackData_opC1Effff@Base 0.9.3
 _ZN12TrackData_opC1Ev@Base 0.9.3
 _ZN12TrackData_opC2Effff@Base 0.9.3
 _ZN12TrackData_opC2Ev@Base 0.9.3
 _ZN12TrackData_opD1Ev@Base 0.9.3
 _ZN12TrackData_opD2Ev@Base 0.9.3
 _ZN12TrackList_op3AddEP13TrackFrame_op@Base 0.9.3
 _ZN12TrackList_opC1Ev@Base 0.9.3
 _ZN12TrackList_opC2Ev@Base 0.9.3
 _ZN12TrackList_opD1Ev@Base 0.9.3
 _ZN12TrackList_opD2Ev@Base 0.9.3
 _ZN13OnePrintErrorC1ENSt7__cxx1112basic_stringIcSt11char_traitsIcESaIcEEE@Base 0.9.3
 _ZN13OnePrintErrorC2ENSt7__cxx1112basic_stringIcSt11char_traitsIcESaIcEEE@Base 0.9.3
 _ZN13OnePrintErrorD1Ev@Base 0.9.3
 _ZN13OnePrintErrorD2Ev@Base 0.9.3
 _ZN13TrackFrame_op19getTrackNearestFreqEf@Base 0.9.3
 _ZN13TrackFrame_op3AddEP12TrackData_op@Base 0.9.3
 _ZN13TrackFrame_opC1Ef@Base 0.9.3
 _ZN13TrackFrame_opC2Ef@Base 0.9.3
 _ZN13TrackFrame_opD1Ev@Base 0.9.3
 _ZN13TrackFrame_opD2Ev@Base 0.9.3
 _ZN14aflibConverter10initializeEdid@Base 0.9.3
 _ZN14aflibConverter12deleteMemoryEv@Base 0.9.3
 _ZN14aflibConverter12resampleFastERiiPsS1_@Base 0.9.3
 _ZN14aflibConverter16LARGE_FILTER_IMPE@Base 0.9.3
 _ZN14aflibConverter16SMALL_FILTER_IMPE@Base 0.9.3
 _ZN14aflibConverter18resampleWithFilterERiiPsS1_S1_S1_ttt@Base 0.9.3
 _ZN14aflibConverter5SrcUDEPsS0_dPjRttttS0_S0_b@Base 0.9.3
 _ZN14aflibConverter5SrcUpEPsS0_dPjRttttS0_S0_b@Base 0.9.3
 _ZN14aflibConverter7err_retEPc@Base 0.9.3
 _ZN14aflibConverter8FilterUDEPsS0_tbS0_sst@Base 0.9.3
 _ZN14aflibConverter8FilterUpEPsS0_tbS0_ss@Base 0.9.3
 _ZN14aflibConverter8readDataEiPsPS0_iib@Base 0.9.3
 _ZN14aflibConverter8resampleERiiPsS1_@Base 0.9.3
 _ZN14aflibConverter9SrcLinearEPsS0_dPjRtt@Base 0.9.3
 _ZN14aflibConverterC1Ebbb@Base 0.9.3
 _ZN14aflibConverterC2Ebbb@Base 0.9.3
 _ZN14aflibConverterD1Ev@Base 0.9.3
 _ZN14aflibConverterD2Ev@Base 0.9.3
 _ZN15FrameTracker_op10TrackPeaksEv@Base 0.9.3
 _ZN15FrameTracker_op12GetBestMatchEfP13TrackFrame_op@Base 0.9.3
 _ZN15FrameTracker_op13ContinuePeaksEv@Base 0.9.3
 _ZN15FrameTracker_op7ComputeER6FFT_op@Base 0.9.3
 _ZN15FrameTracker_op9FindPeaksER6FFT_opiP13TrackFrame_op@Base 0.9.3
 _ZN15FrameTracker_opC1Efffi@Base 0.9.3
 _ZN15FrameTracker_opC2Efffi@Base 0.9.3
 _ZN15FrameTracker_opD1Ev@Base 0.9.3
 _ZN15FrameTracker_opD2Ev@Base 0.9.3
 _ZN3TNT7Array1DIfEC1Ei@Base 0.9.3
 _ZN3TNT7Array1DIfEC2Ei@Base 0.9.3
 _ZN3TNT7Array2DIfE11initialize_Eii@Base 0.9.3
 _ZN3TNT7Array2DIfEC1Eii@Base 0.9.3
 _ZN3TNT7Array2DIfEC2Eii@Base 0.9.3
 _ZN3TNT7Array2DIfED1Ev@Base 0.9.3
 _ZN3TNT7Array2DIfED2Ev@Base 0.9.3
 _ZN4JAMA3SVDIfEC1ERKN3TNT7Array2DIfEE@Base 0.9.3
 _ZN4JAMA3SVDIfEC2ERKN3TNT7Array2DIfEE@Base 0.9.3
 _ZN6FFT_op10FreqToMidiEd@Base 0.9.3
 _ZN6FFT_op10LoadSignalEP9Signal_op@Base 0.9.3
 _ZN6FFT_op10WindowInitEv@Base 0.9.3
 _ZN6FFT_op12CreateBufferEiib@Base 0.9.3
 _ZN6FFT_op13ComputeWindowEPd@Base 0.9.3
 _ZN6FFT_op7ComputeEd@Base 0.9.3
 _ZN6FFT_op7SetSizeEib@Base 0.9.3
 _ZN6FFT_op7SetStepEi@Base 0.9.3
 _ZN6FFT_op8ReSampleEib@Base 0.9.3
 _ZN6FFT_opC1Ev@Base 0.9.3
 _ZN6FFT_opC2Ev@Base 0.9.3
 _ZN6FFT_opD1Ev@Base 0.9.3
 _ZN6FFT_opD2Ev@Base 0.9.3
 _ZN9FFTLib_op10InitializeEib@Base 0.9.3
 _ZN9FFTLib_op12ComputeFrameEiPdS0_@Base 0.9.3
 _ZN9FFTLib_op7DestroyEv@Base 0.9.3
 _ZN9FFTLib_op7SetSizeEibPdS0_@Base 0.9.3
 _ZN9Signal_op11PrepareMonoEld@Base 0.9.3
 _ZN9Signal_op13PrepareStereoEld@Base 0.9.3
 _ZN9Signal_op13RemoveSilenceEdd@Base 0.9.3
 _ZN9Signal_op14RemoveDCOffsetEv@Base 0.9.3
 _ZN9Signal_op17ConvertSampleRateEl@Base 0.9.3
 _ZN9Signal_op19GetCrossCorrelationEv@Base 0.9.3
 _ZN9Signal_op4LoadEPslib@Base 0.9.3
 _ZN9Signal_op6LPlusREv@Base 0.9.3
 _ZN9Signal_op7LMinusREv@Base 0.9.3
 _ZN9Signal_op9CutSignalEdd@Base 0.9.3
 _ZN9Signal_op9NormalizeEv@Base 0.9.3
 _ZN9Signal_opC1Ev@Base 0.9.3
 _ZN9Signal_opC2Ev@Base 0.9.3
 _ZN9Signal_opD1Ev@Base 0.9.3
 _ZN9Signal_opD2Ev@Base 0.9.3
 _ZTI13OnePrintError@Base 0.9.3
 _ZTS13OnePrintError@Base 0.9.3
 ofa_create_print@Base 0.9.3
 ofa_get_version@Base 0.9.3
